(lp0
S'@READ_1'
p1
aS'CTAGAAT'
p2
aS'+READ_1'
p3
aS'3.$2)9&'
p4
aS'@READ_2'
p5
aS'CTATTAT'
p6
aS'+READ_2'
p7
aS'0"6]S6M'
p8
aS'@READ_3'
p9
aS'CCAGATC'
p10
aS'+READ_3'
p11
aS'#*#STZB'
p12
aS'@READ_4'
p13
aS'GACAGGG'
p14
aS'+READ_4'
p15
aS'6,[`Y:0'
p16
aS'@READ_5'
p17
aS'TGGCCGT'
p18
aS'+READ_5'
p19
aS'VQP(_T9'
p20
aS'@READ_6'
p21
aS'GTGTGGT'
p22
aS'+READ_6'
p23
aS"'->6.T3"
p24
aS'@READ_7'
p25
aS'CTGTATC'
p26
aS'+READ_7'
p27
aS'`)_#3"U'
p28
aS'@READ_8'
p29
aS'CGTTTCA'
p30
aS'+READ_8'
p31
aS'&[7;&1;'
p32
aS'@READ_9'
p33
aS'CTGCGCG'
p34
aS'+READ_9'
p35
aS'^KJT;:['
p36
aS'@READ_10'
p37
aS'AAGGTAC'
p38
aS'+READ_10'
p39
aS'9-4?:RU'
p40
aS'@READ_11'
p41
aS'CTCTGAG'
p42
aS'+READ_11'
p43
aS"GE'GN&I"
p44
aS'@READ_12'
p45
aS'GTAAGTT'
p46
aS'+READ_12'
p47
aS'`\'=&"TA'
p48
aS'@READ_13'
p49
aS'CCTTAGA'
p50
aS'+READ_13'
p51
aS"'$[%NEX"
p52
aS'@READ_14'
p53
aS'TTTTAGC'
p54
aS'+READ_14'
p55
aS'(^SA+&`'
p56
aS'@READ_15'
p57
aS'TGTCGAA'
p58
aS'+READ_15'
p59
aS'DXU+=\\Q'
p60
aS'@READ_16'
p61
aS'CCTAATA'
p62
aS'+READ_16'
p63
aS'*!:*(W/'
p64
aS'@READ_17'
p65
aS'GTTTATG'
p66
aS'+READ_17'
p67
aS')JO0MJ4'
p68
aS'@READ_18'
p69
aS'CGTAGGA'
p70
aS'+READ_18'
p71
aS':.,B,^#'
p72
aS'@READ_19'
p73
aS'GCGCTCT'
p74
aS'+READ_19'
p75
aS'7$#[\\W%'
p76
aS'@READ_20'
p77
aS'GGTTTTT'
p78
aS'+READ_20'
p79
aS'8RVBR0K'
p80
aS'@READ_21'
p81
aS'TTTGGTC'
p82
aS'+READ_21'
p83
aS'Z&Z#PH2'
p84
aS'@READ_22'
p85
aS'TTTACGC'
p86
aS'+READ_22'
p87
aS'=2FW@Q8'
p88
aS'@READ_23'
p89
aS'TCCGGTT'
p90
aS'+READ_23'
p91
aS'KO;"S=\\'
p92
aS'@READ_24'
p93
aS'GCGCAGA'
p94
aS'+READ_24'
p95
aS'N3`%$VF'
p96
aS'@READ_25'
p97
aS'TGATCAC'
p98
aS'+READ_25'
p99
aS'V%1P+*R'
p100
aS'@READ_26'
p101
aS'TTTTTGA'
p102
aS'+READ_26'
p103
aS'ZR$7#I-'
p104
aS'@READ_27'
p105
aS'ACCATGG'
p106
aS'+READ_27'
p107
aS'B9D-(_.'
p108
aS'@READ_28'
p109
aS'CGGATCC'
p110
aS'+READ_28'
p111
aS'Z;)GN)K'
p112
aS'@READ_29'
p113
aS'TTGTGGT'
p114
aS'+READ_29'
p115
aS'R_1H#A7'
p116
aS'@READ_30'
p117
aS'TGCTGAG'
p118
aS'+READ_30'
p119
aS'.J)(<,>'
p120
aS'@READ_31'
p121
aS'CGGCAAG'
p122
aS'+READ_31'
p123
aS'>UJ`..,'
p124
aS'@READ_32'
p125
aS'TTACCGC'
p126
aS'+READ_32'
p127
aS'5,:.GBU'
p128
aS'@READ_33'
p129
aS'CTTCTCA'
p130
aS'+READ_33'
p131
aS'5K@&IPN'
p132
aS'@READ_34'
p133
aS'CAAAGCA'
p134
aS'+READ_34'
p135
aS'L1%Y[-!'
p136
aS'@READ_35'
p137
aS'CCGGACA'
p138
aS'+READ_35'
p139
aS'69>S.(S'
p140
aS'@READ_36'
p141
aS'ACGTATA'
p142
aS'+READ_36'
p143
aS';5^PA8]'
p144
aS'@READ_37'
p145
aS'GCGTCGA'
p146
aS'+READ_37'
p147
aS"'ZR;D1A"
p148
aS'@READ_38'
p149
aS'CTCGACT'
p150
aS'+READ_38'
p151
aS'-`.X12Q'
p152
aS'@READ_39'
p153
aS'TGTATGT'
p154
aS'+READ_39'
p155
aS'+?R@X/3'
p156
aS'@READ_40'
p157
aS'ATAAATA'
p158
aS'+READ_40'
p159
aS'%6%@K#/'
p160
aS'@READ_41'
p161
aS'CGCTATG'
p162
aS'+READ_41'
p163
aS'+;+14]L'
p164
aS'@READ_42'
p165
aS'CGTTGAC'
p166
aS'+READ_42'
p167
aS'W--$,:['
p168
aS'@READ_43'
p169
aS'GCCCACG'
p170
aS'+READ_43'
p171
aS"=LLG+='"
p172
aS'@READ_44'
p173
aS'ATCATCA'
p174
aS'+READ_44'
p175
aS'#L:\'"?F'
p176
aS'@READ_45'
p177
aS'TAAAGCA'
p178
aS'+READ_45'
p179
aS"LAUV\\`'"
p180
aS'@READ_46'
p181
aS'TCGCACA'
p182
aS'+READ_46'
p183
aS'/\\S%(_)'
p184
aS'@READ_47'
p185
aS'GGGAATG'
p186
aS'+READ_47'
p187
aS'49#P%O6'
p188
aS'@READ_48'
p189
aS'ACAAACA'
p190
aS'+READ_48'
p191
aS'/+=2WV8'
p192
aS'@READ_49'
p193
aS'TTATTCA'
p194
aS'+READ_49'
p195
aS'X4^CUR8'
p196
aS'@READ_50'
p197
aS'GTACCTT'
p198
aS'+READ_50'
p199
aS'PQ?^L1#'
p200
aS'@READ_51'
p201
aS'CCTATCA'
p202
aS'+READ_51'
p203
aS"S0+'I.V"
p204
aS'@READ_52'
p205
aS'TATTGTA'
p206
aS'+READ_52'
p207
aS"M\\,\\'H-"
p208
aS'@READ_53'
p209
aS'GCAGACG'
p210
aS'+READ_53'
p211
aS']>EUQB7'
p212
aS'@READ_54'
p213
aS'ATGTTTC'
p214
aS'+READ_54'
p215
aS'F4O5%-3'
p216
aS'@READ_55'
p217
aS'AGAGTTG'
p218
aS'+READ_55'
p219
aS'Q>6DMAJ'
p220
aS'@READ_56'
p221
aS'TATTCGG'
p222
aS'+READ_56'
p223
aS'5N?"JJ]'
p224
aS'@READ_57'
p225
aS'TGTGTTC'
p226
aS'+READ_57'
p227
aS'Q2*NONB'
p228
aS'@READ_58'
p229
aS'ACTCAGA'
p230
aS'+READ_58'
p231
aS'?0X%DG:'
p232
aS'@READ_59'
p233
aS'TCCAAGG'
p234
aS'+READ_59'
p235
aS'HTL81"['
p236
aS'@READ_60'
p237
aS'TCCTGCG'
p238
aS'+READ_60'
p239
aS'^BD30#4'
p240
aS'@READ_61'
p241
aS'TTCTCAG'
p242
aS'+READ_61'
p243
aS'YL1J];7'
p244
aS'@READ_62'
p245
aS'CATGCTT'
p246
aS'+READ_62'
p247
aS'L(Y+8Q/'
p248
aS'@READ_63'
p249
aS'CGTCACC'
p250
aS'+READ_63'
p251
aS'[7HC*4Z'
p252
aS'@READ_64'
p253
aS'ATAAAGT'
p254
aS'+READ_64'
p255
aS';5U9V9K'
p256
aS'@READ_65'
p257
aS'TTCGTTG'
p258
aS'+READ_65'
p259
aS"&;__'0H"
p260
aS'@READ_66'
p261
aS'CTAGTAA'
p262
aS'+READ_66'
p263
aS'$J_OQWY'
p264
aS'@READ_67'
p265
aS'CAATGTA'
p266
aS'+READ_67'
p267
aS")H'#_OE"
p268
aS'@READ_68'
p269
aS'TCGTATT'
p270
aS'+READ_68'
p271
aS')"?C73['
p272
aS'@READ_69'
p273
aS'CCTACCT'
p274
aS'+READ_69'
p275
aS'-LF2&D0'
p276
aS'@READ_70'
p277
aS'AACCAGT'
p278
aS'+READ_70'
p279
aS',SX/=V]'
p280
aS'@READ_71'
p281
aS'ATACAAA'
p282
aS'+READ_71'
p283
aS'.MV65]9'
p284
aS'@READ_72'
p285
aS'TAAGCTC'
p286
aS'+READ_72'
p287
aS'3L];N<^'
p288
aS'@READ_73'
p289
aS'GGCTACT'
p290
aS'+READ_73'
p291
aS'$OX1:>B'
p292
aS'@READ_74'
p293
aS'CTGCTAG'
p294
aS'+READ_74'
p295
aS'@!RKTJZ'
p296
aS'@READ_75'
p297
aS'ATGATTC'
p298
aS'+READ_75'
p299
aS'1?W>,LS'
p300
aS'@READ_76'
p301
aS'TAGGCTC'
p302
aS'+READ_76'
p303
aS'@I,S4(-'
p304
aS'@READ_77'
p305
aS'TGTCCCA'
p306
aS'+READ_77'
p307
aS'!D+%2"5'
p308
aS'@READ_78'
p309
aS'CGTTCGA'
p310
aS'+READ_78'
p311
aS'L@W+AIV'
p312
aS'@READ_79'
p313
aS'CTTCGGG'
p314
aS'+READ_79'
p315
aS'42OEPF"'
p316
aS'@READ_80'
p317
aS'CGTCGCA'
p318
aS'+READ_80'
p319
aS'\\1U<Z`.'
p320
aS'@READ_81'
p321
aS'ACCTTAA'
p322
aS'+READ_81'
p323
aS'-(:.KE2'
p324
aS'@READ_82'
p325
aS'ACAGAAC'
p326
aS'+READ_82'
p327
aS']GFH&=S'
p328
aS'@READ_83'
p329
aS'CTGGGGA'
p330
aS'+READ_83'
p331
aS'F%HZ67>'
p332
aS'@READ_84'
p333
aS'CAGTTGA'
p334
aS'+READ_84'
p335
aS'%\\?!-3<'
p336
aS'@READ_85'
p337
aS'GAAGCGC'
p338
aS'+READ_85'
p339
aS'&3I3:#@'
p340
aS'@READ_86'
p341
aS'CGCGAGA'
p342
aS'+READ_86'
p343
aS'%GR"-7I'
p344
aS'@READ_87'
p345
aS'AGGCCCA'
p346
aS'+READ_87'
p347
aS'2S<WX#Q'
p348
aS'@READ_88'
p349
aS'ATCCATA'
p350
aS'+READ_88'
p351
aS'-9.24L2'
p352
aS'@READ_89'
p353
aS'TCACGCT'
p354
aS'+READ_89'
p355
aS'A_MF25Y'
p356
aS'@READ_90'
p357
aS'TTCACTG'
p358
aS'+READ_90'
p359
aS'L88P^)Q'
p360
aS'@READ_91'
p361
aS'GCTGACA'
p362
aS'+READ_91'
p363
aS'+@:<3U3'
p364
aS'@READ_92'
p365
aS'GGCGGGT'
p366
aS'+READ_92'
p367
aS'*X#611G'
p368
aS'@READ_93'
p369
aS'GCTGTAT'
p370
aS'+READ_93'
p371
aS'E]Y%\\EK'
p372
aS'@READ_94'
p373
aS'GCTCCAG'
p374
aS'+READ_94'
p375
aS'-ZCX1[H'
p376
aS'@READ_95'
p377
aS'TACCCAT'
p378
aS'+READ_95'
p379
aS'/#99CRU'
p380
aS'@READ_96'
p381
aS'CGATCCG'
p382
aS'+READ_96'
p383
aS"VG'`?*6"
p384
aS'@READ_97'
p385
aS'TTCGCCA'
p386
aS'+READ_97'
p387
aS'O;]47U8'
p388
aS'@READ_98'
p389
aS'CGATATC'
p390
aS'+READ_98'
p391
aS'2:#?3E6'
p392
aS'@READ_99'
p393
aS'CATAACG'
p394
aS'+READ_99'
p395
aS'C?^RB6*'
p396
aS'@READ_100'
p397
aS'GGCTAGT'
p398
aS'+READ_100'
p399
aS'%(^ZN%Y'
p400
aS'@READ_101'
p401
aS'GTGCGAA'
p402
aS'+READ_101'
p403
aS'-//\\I+/'
p404
aS'@READ_102'
p405
aS'TCACAAA'
p406
aS'+READ_102'
p407
aS'``G19IP'
p408
aS'@READ_103'
p409
aS'AAGGAGG'
p410
aS'+READ_103'
p411
aS'K-&.L#_'
p412
aS'@READ_104'
p413
aS'CTCTCTT'
p414
aS'+READ_104'
p415
aS'-8(1?&+'
p416
aS'@READ_105'
p417
aS'GCTAACG'
p418
aS'+READ_105'
p419
aS'-*$9825'
p420
aS'@READ_106'
p421
aS'TCGGTTA'
p422
aS'+READ_106'
p423
aS'!=C`<)1'
p424
aS'@READ_107'
p425
aS'TTAATTG'
p426
aS'+READ_107'
p427
aS'TR`>_%L'
p428
aS'@READ_108'
p429
aS'ACCCAGC'
p430
aS'+READ_108'
p431
aS"J'JV?R'"
p432
aS'@READ_109'
p433
aS'CCAAGTA'
p434
aS'+READ_109'
p435
aS'^W1+`4D'
p436
aS'@READ_110'
p437
aS'TAGGGCC'
p438
aS'+READ_110'
p439
aS'8FX9":8'
p440
aS'@READ_111'
p441
aS'CACCAGC'
p442
aS'+READ_111'
p443
aS'=CI14HO'
p444
aS'@READ_112'
p445
aS'ACAAGGG'
p446
aS'+READ_112'
p447
aS'2M:\\T#Q'
p448
aS'@READ_113'
p449
aS'TATCGAC'
p450
aS'+READ_113'
p451
aS'3TX0K):'
p452
aS'@READ_114'
p453
aS'CTCCAAT'
p454
aS'+READ_114'
p455
aS'K=^""U;'
p456
aS'@READ_115'
p457
aS'GGATGGA'
p458
aS'+READ_115'
p459
aS'$/RAQ;Q'
p460
aS'@READ_116'
p461
aS'TCGTGGA'
p462
aS'+READ_116'
p463
aS'%#?7OY2'
p464
aS'@READ_117'
p465
aS'CATACGG'
p466
aS'+READ_117'
p467
aS'C["UOZ%'
p468
aS'@READ_118'
p469
aS'ATTGGCT'
p470
aS'+READ_118'
p471
aS'9">$><%'
p472
aS'@READ_119'
p473
aS'GGGAATA'
p474
aS'+READ_119'
p475
aS'@0?C>1$'
p476
aS'@READ_120'
p477
aS'TCAGGTC'
p478
aS'+READ_120'
p479
aS'/LT3N3I'
p480
aS'@READ_121'
p481
aS'CGCGTAT'
p482
aS'+READ_121'
p483
aS'<+Z_&\\S'
p484
aS'@READ_122'
p485
aS'ATCCGCT'
p486
aS'+READ_122'
p487
aS'UUW.W51'
p488
aS'@READ_123'
p489
aS'CGGTAAA'
p490
aS'+READ_123'
p491
aS'4P5T_T6'
p492
aS'@READ_124'
p493
aS'CAAACCG'
p494
aS'+READ_124'
p495
aS'=%9KP-]'
p496
aS'@READ_125'
p497
aS'AAACGGA'
p498
aS'+READ_125'
p499
aS'=?FYJ?W'
p500
aS'@READ_126'
p501
aS'CTAGTGT'
p502
aS'+READ_126'
p503
aS'O:JD/@Q'
p504
aS'@READ_127'
p505
aS'GTTTGCT'
p506
aS'+READ_127'
p507
aS'%U!9D6,'
p508
aS'@READ_128'
p509
aS'TGTAGTC'
p510
aS'+READ_128'
p511
aS'C*B`.[J'
p512
aS'@READ_129'
p513
aS'TCAACCG'
p514
aS'+READ_129'
p515
aS"^'G;F,4"
p516
aS'@READ_130'
p517
aS'ATTCTTA'
p518
aS'+READ_130'
p519
aS'0K+_%TB'
p520
aS'@READ_131'
p521
aS'GGAAGTT'
p522
aS'+READ_131'
p523
aS'3428(2P'
p524
aS'@READ_132'
p525
aS'AAGAGGC'
p526
aS'+READ_132'
p527
aS'LH\\/Q>.'
p528
aS'@READ_133'
p529
aS'AGGATTC'
p530
aS'+READ_133'
p531
aS'_8X\\?>7'
p532
aS'@READ_134'
p533
aS'CATCAGT'
p534
aS'+READ_134'
p535
aS'%JJ44T3'
p536
aS'@READ_135'
p537
aS'TGTCAAG'
p538
aS'+READ_135'
p539
aS'8HTK[%"'
p540
aS'@READ_136'
p541
aS'TTCTTAT'
p542
aS'+READ_136'
p543
aS'#7RO_N]'
p544
aS'@READ_137'
p545
aS'GTCTCAA'
p546
aS'+READ_137'
p547
aS'O++MB"I'
p548
aS'@READ_138'
p549
aS'CTCGACT'
p550
aS'+READ_138'
p551
aS'!@_%*H9'
p552
aS'@READ_139'
p553
aS'AAGTTGC'
p554
aS'+READ_139'
p555
aS'=;KU#?@'
p556
aS'@READ_140'
p557
aS'TGTGCCG'
p558
aS'+READ_140'
p559
aS']CB`Z3N'
p560
aS'@READ_141'
p561
aS'CCGACTA'
p562
aS'+READ_141'
p563
aS'X`KG+U3'
p564
aS'@READ_142'
p565
aS'GTATTGC'
p566
aS'+READ_142'
p567
aS'MW\\M7ZR'
p568
aS'@READ_143'
p569
aS'TACTATT'
p570
aS'+READ_143'
p571
aS'@A+]\\UR'
p572
aS'@READ_144'
p573
aS'TGCTAAG'
p574
aS'+READ_144'
p575
aS'^31[VRZ'
p576
aS'@READ_145'
p577
aS'GGCAAAC'
p578
aS'+READ_145'
p579
aS'P%HH%2.'
p580
aS'@READ_146'
p581
aS'CACTTGT'
p582
aS'+READ_146'
p583
aS"/'A\\^<H"
p584
aS'@READ_147'
p585
aS'TCCGCGG'
p586
aS'+READ_147'
p587
aS'45:TVDQ'
p588
aS'@READ_148'
p589
aS'GGGGATG'
p590
aS'+READ_148'
p591
aS'R9CPLTJ'
p592
aS'@READ_149'
p593
aS'CACAGTA'
p594
aS'+READ_149'
p595
aS'AED1J+X'
p596
aS'@READ_150'
p597
aS'GTGTTTT'
p598
aS'+READ_150'
p599
aS'O=%]CFY'
p600
aS'@READ_151'
p601
aS'TGTGTAC'
p602
aS'+READ_151'
p603
aS'A!AU6ZI'
p604
aS'@READ_152'
p605
aS'CTATCGG'
p606
aS'+READ_152'
p607
aS',>9]V[M'
p608
aS'@READ_153'
p609
aS'GGCATGA'
p610
aS'+READ_153'
p611
aS'AO6"3Z2'
p612
aS'@READ_154'
p613
aS'CGCACTA'
p614
aS'+READ_154'
p615
aS']%)KA.H'
p616
aS'@READ_155'
p617
aS'CGAAATT'
p618
aS'+READ_155'
p619
aS'$T@DT`8'
p620
aS'@READ_156'
p621
aS'AAACACC'
p622
aS'+READ_156'
p623
aS'*Z`5792'
p624
aS'@READ_157'
p625
aS'GATATCA'
p626
aS'+READ_157'
p627
aS',4^M"4N'
p628
aS'@READ_158'
p629
aS'GAAAGGA'
p630
aS'+READ_158'
p631
aS'5-_11(\\'
p632
aS'@READ_159'
p633
aS'TCCAAGC'
p634
aS'+READ_159'
p635
aS'R6CU)#8'
p636
aS'@READ_160'
p637
aS'AGACGCG'
p638
aS'+READ_160'
p639
aS"]#P'\\P<"
p640
aS'@READ_161'
p641
aS'TTTCTTG'
p642
aS'+READ_161'
p643
aS'2(M><K+'
p644
aS'@READ_162'
p645
aS'GAGACTC'
p646
aS'+READ_162'
p647
aS'=^XQ+W"'
p648
aS'@READ_163'
p649
aS'TCCTTTA'
p650
aS'+READ_163'
p651
aS';_],5@!'
p652
aS'@READ_164'
p653
aS'TCCATGC'
p654
aS'+READ_164'
p655
aS'>B9:D(A'
p656
aS'@READ_165'
p657
aS'GTTCGTT'
p658
aS'+READ_165'
p659
aS'@X\\R`I/'
p660
aS'@READ_166'
p661
aS'GTCAAAC'
p662
aS'+READ_166'
p663
aS';3:W01H'
p664
aS'@READ_167'
p665
aS'CAGAGAA'
p666
aS'+READ_167'
p667
aS';(JU&F!'
p668
aS'@READ_168'
p669
aS'CAAACCC'
p670
aS'+READ_168'
p671
aS';&!XG:2'
p672
aS'@READ_169'
p673
aS'CTGTTGC'
p674
aS'+READ_169'
p675
aS'+ARJ8M;'
p676
aS'@READ_170'
p677
aS'GGAACGC'
p678
aS'+READ_170'
p679
aS'76JRH#H'
p680
aS'@READ_171'
p681
aS'CGTTGCA'
p682
aS'+READ_171'
p683
aS"X402;Y'"
p684
aS'@READ_172'
p685
aS'AGACGAG'
p686
aS'+READ_172'
p687
aS'A?([D)R'
p688
aS'@READ_173'
p689
aS'ACACCGA'
p690
aS'+READ_173'
p691
aS'*B#5#U^'
p692
aS'@READ_174'
p693
aS'ACGGTTT'
p694
aS'+READ_174'
p695
aS':B8QW!C'
p696
aS'@READ_175'
p697
aS'CCCTTAG'
p698
aS'+READ_175'
p699
aS'>$*67:H'
p700
aS'@READ_176'
p701
aS'CGGGAGA'
p702
aS'+READ_176'
p703
aS'R2N3PV-'
p704
aS'@READ_177'
p705
aS'TGGTATA'
p706
aS'+READ_177'
p707
aS'3^_=?"Q'
p708
aS'@READ_178'
p709
aS'CCCCTAA'
p710
aS'+READ_178'
p711
aS'AWO[8&L'
p712
aS'@READ_179'
p713
aS'TTAAACA'
p714
aS'+READ_179'
p715
aS'.\'.L*8"'
p716
aS'@READ_180'
p717
aS'TCGCACT'
p718
aS'+READ_180'
p719
aS'AQI2#7E'
p720
aS'@READ_181'
p721
aS'AATATGT'
p722
aS'+READ_181'
p723
aS'S,R%)PB'
p724
aS'@READ_182'
p725
aS'TCACTGT'
p726
aS'+READ_182'
p727
aS'GR3(H!"'
p728
aS'@READ_183'
p729
aS'GGTGCTG'
p730
aS'+READ_183'
p731
aS"_'N--[Y"
p732
aS'@READ_184'
p733
aS'CCGATCG'
p734
aS'+READ_184'
p735
aS'72ZX#B*'
p736
aS'@READ_185'
p737
aS'TGCTTCT'
p738
aS'+READ_185'
p739
aS'%XNW#?\\'
p740
aS'@READ_186'
p741
aS'GATCGTG'
p742
aS'+READ_186'
p743
aS'+/>R!PY'
p744
aS'@READ_187'
p745
aS'CCCATCG'
p746
aS'+READ_187'
p747
aS'HQ[GWHT'
p748
aS'@READ_188'
p749
aS'CCCGGAT'
p750
aS'+READ_188'
p751
aS'$CL;TE2'
p752
aS'@READ_189'
p753
aS'CGCAATA'
p754
aS'+READ_189'
p755
aS'W&;[^)R'
p756
aS'@READ_190'
p757
aS'TAAGAAT'
p758
aS'+READ_190'
p759
aS'`GN+V+\\'
p760
aS'@READ_191'
p761
aS'GTGACAC'
p762
aS'+READ_191'
p763
aS'V[U>KP$'
p764
aS'@READ_192'
p765
aS'CGTGTCA'
p766
aS'+READ_192'
p767
aS'B7XEYC_'
p768
aS'@READ_193'
p769
aS'GGAAACC'
p770
aS'+READ_193'
p771
aS"M'1C-L>"
p772
aS'@READ_194'
p773
aS'CAGCCGT'
p774
aS'+READ_194'
p775
aS'*T0*;]4'
p776
aS'@READ_195'
p777
aS'GTTCTGC'
p778
aS'+READ_195'
p779
aS'0(0&#%C'
p780
aS'@READ_196'
p781
aS'AGGGCGA'
p782
aS'+READ_196'
p783
aS'NTG/+>S'
p784
aS'@READ_197'
p785
aS'CTCTGGA'
p786
aS'+READ_197'
p787
aS'#`RP\'"3'
p788
aS'@READ_198'
p789
aS'GTCTATA'
p790
aS'+READ_198'
p791
aS'4MQ=A`G'
p792
aS'@READ_199'
p793
aS'CGTAGTC'
p794
aS'+READ_199'
p795
aS'[][+%*0'
p796
aS'@READ_200'
p797
aS'CCGCACA'
p798
aS'+READ_200'
p799
aS'\'.ST"9"'
p800
aS'@READ_201'
p801
aS'CTAGTGC'
p802
aS'+READ_201'
p803
aS',VU/VF^'
p804
aS'@READ_202'
p805
aS'CAGAATT'
p806
aS'+READ_202'
p807
aS'\\H0/4`L'
p808
aS'@READ_203'
p809
aS'ATAGGAG'
p810
aS'+READ_203'
p811
aS'U`2O]-Z'
p812
aS'@READ_204'
p813
aS'CTAGAGT'
p814
aS'+READ_204'
p815
aS'!6*(D]['
p816
aS'@READ_205'
p817
aS'AATCAAT'
p818
aS'+READ_205'
p819
aS'F5]Q+R_'
p820
aS'@READ_206'
p821
aS'TTCCTAG'
p822
aS'+READ_206'
p823
aS'`8]\\_-+'
p824
aS'@READ_207'
p825
aS'AACCAGT'
p826
aS'+READ_207'
p827
aS"3-V',(V"
p828
aS'@READ_208'
p829
aS'TGGACGG'
p830
aS'+READ_208'
p831
aS'(4P)JY0'
p832
aS'@READ_209'
p833
aS'GCGGGGA'
p834
aS'+READ_209'
p835
aS'.U+S*(C'
p836
aS'@READ_210'
p837
aS'GGAGGGA'
p838
aS'+READ_210'
p839
aS'4YB40?/'
p840
aS'@READ_211'
p841
aS'GGGGGAT'
p842
aS'+READ_211'
p843
aS'.K9AW/G'
p844
aS'@READ_212'
p845
aS'TGTGAGG'
p846
aS'+READ_212'
p847
aS'"7=*J,2'
p848
aS'@READ_213'
p849
aS'GCAAGGT'
p850
aS'+READ_213'
p851
aS'4%BAYL3'
p852
aS'@READ_214'
p853
aS'CATTTAC'
p854
aS'+READ_214'
p855
aS'#SV6K8J'
p856
aS'@READ_215'
p857
aS'CGCACAG'
p858
aS'+READ_215'
p859
aS'[VX)@1I'
p860
aS'@READ_216'
p861
aS'AAGTGCC'
p862
aS'+READ_216'
p863
aS'7@08VLB'
p864
aS'@READ_217'
p865
aS'TTTCAAG'
p866
aS'+READ_217'
p867
aS'@WTS[54'
p868
aS'@READ_218'
p869
aS'TTCATCA'
p870
aS'+READ_218'
p871
aS'T!GWT=-'
p872
aS'@READ_219'
p873
aS'TCCCATC'
p874
aS'+READ_219'
p875
aS'?TV9JNA'
p876
aS'@READ_220'
p877
aS'GTAGAGC'
p878
aS'+READ_220'
p879
aS')_*?>9W'
p880
aS'@READ_221'
p881
aS'TATGTTA'
p882
aS'+READ_221'
p883
aS'3$9S[,F'
p884
aS'@READ_222'
p885
aS'ATGAGAC'
p886
aS'+READ_222'
p887
aS'VAYIB@@'
p888
aS'@READ_223'
p889
aS'GCCCTTT'
p890
aS'+READ_223'
p891
aS'5\\LSOA,'
p892
aS'@READ_224'
p893
aS'ATAGTAA'
p894
aS'+READ_224'
p895
aS'9.MA-V`'
p896
aS'@READ_225'
p897
aS'TTGGTGC'
p898
aS'+READ_225'
p899
aS'J.W]2/O'
p900
aS'@READ_226'
p901
aS'TCGAACA'
p902
aS'+READ_226'
p903
aS',;5"\\-K'
p904
aS'@READ_227'
p905
aS'TCGCTTT'
p906
aS'+READ_227'
p907
aS'=M*RHUE'
p908
aS'@READ_228'
p909
aS'TTGTGTG'
p910
aS'+READ_228'
p911
aS'75POC<0'
p912
aS'@READ_229'
p913
aS'CATCTGA'
p914
aS'+READ_229'
p915
aS'O2/9@&5'
p916
aS'@READ_230'
p917
aS'GAGCCAC'
p918
aS'+READ_230'
p919
aS'Q4$]O8^'
p920
aS'@READ_231'
p921
aS'GCGGTAT'
p922
aS'+READ_231'
p923
aS"KEI'1RY"
p924
aS'@READ_232'
p925
aS'GATGTGC'
p926
aS'+READ_232'
p927
aS'XF=/[-]'
p928
aS'@READ_233'
p929
aS'GCAACTC'
p930
aS'+READ_233'
p931
aS'>H,,Z;D'
p932
aS'@READ_234'
p933
aS'CCCACTG'
p934
aS'+READ_234'
p935
aS'9@Y*T\\&'
p936
aS'@READ_235'
p937
aS'TAAGCGA'
p938
aS'+READ_235'
p939
aS'C4$-XM4'
p940
aS'@READ_236'
p941
aS'CTAAATG'
p942
aS'+READ_236'
p943
aS')>,!$H/'
p944
aS'@READ_237'
p945
aS'TCAGTAG'
p946
aS'+READ_237'
p947
aS'^T+;<7G'
p948
aS'@READ_238'
p949
aS'CTAGCGG'
p950
aS'+READ_238'
p951
aS'6R*N1#W'
p952
aS'@READ_239'
p953
aS'TCAGGCA'
p954
aS'+READ_239'
p955
aS'%^]G2!S'
p956
aS'@READ_240'
p957
aS'ATCCTCC'
p958
aS'+READ_240'
p959
aS')M&2+22'
p960
a.